target datalayout = "e-m:e-p270:32:32-p271:32:32-p272:64:64-i64:64-i128:128-f80:128-n8:16:32:64-S128"
target triple = "x86_64-pc-linux-gnu"

%class.ZErrno = type { i32 }
%class.ZPhysicalMemoryBacking = type <{ i32, [4 x i8], i64, i64, i64, i64, i8, [7 x i8] }>

; Function Attrs: mustprogress nounwind uwtable
define linkonce_odr hidden noundef i64 @_Z6untype7zoffset(i64 noundef %0) #1 comdat {
  %2 = alloca i64, align 8
  %3 = alloca i64, align 8
  store i64 %0, ptr %2, align 8
  %4 = load i64, ptr %2, align 8
  store i64 %4, ptr %3, align 8
  %5 = load i64, ptr %3, align 8
  ret i64 %5
}

; Function Attrs: mustprogress nounwind uwtable
define hidden i32 @_ZNK22ZPhysicalMemoryBacking27fallocate_fill_hole_syscallE7zoffsetm(ptr noundef nonnull align 8 dereferenceable(41) %0, i64 noundef %1, i64 noundef %2) #1 align 2 {
  %4 = alloca %class.ZErrno, align 4
  %5 = alloca ptr, align 8
  %6 = alloca i64, align 8
  %7 = alloca i64, align 8
  %8 = alloca i32, align 4
  %9 = alloca i32, align 4
  store ptr %0, ptr %5, align 8
  store i64 %1, ptr %6, align 8
  store i64 %2, ptr %7, align 8
  %10 = load ptr, ptr %5, align 8
  store i32 0, ptr %8, align 4
  %11 = getelementptr inbounds %class.ZPhysicalMemoryBacking, ptr %10, i32 0, i32 0
  %12 = load i32, ptr %11, align 8
  %13 = load i64, ptr %6, align 8
  %14 = call noundef i64 @_Z6untype7zoffset(i64 noundef %13)
  %15 = load i64, ptr %7, align 8
  %16 = call noundef i32 @_ZN8ZSyscall9fallocateEiimm(i32 noundef %12, i32 noundef 0, i64 noundef %14, i64 noundef %15)
  store i32 %16, ptr %9, align 4
  %17 = load i32, ptr %9, align 4
  %18 = icmp eq i32 %17, -1
  br i1 %18, label %19, label %22

19:                                               ; preds = %3
  %20 = call ptr @__errno_location() #9
  %21 = load i32, ptr %20, align 4
  call void @_ZN6ZErrnoC1Ei(ptr noundef nonnull align 4 dereferenceable(4) %4, i32 noundef %21)
  br label %23

22:                                               ; preds = %3
  call void @_ZN6ZErrnoC1Ei(ptr noundef nonnull align 4 dereferenceable(4) %4, i32 noundef 0)
  br label %23

23:                                               ; preds = %22, %19
  %24 = getelementptr inbounds %class.ZErrno, ptr %4, i32 0, i32 0
  %25 = load i32, ptr %24, align 4
  ret i32 %25
}