; Function Attrs: mustprogress nounwind uwtable
define hidden i32 @_ZNK22ZPhysicalMemoryBacking27fallocate_fill_hole_syscallE7zoffsetm(ptr nocapture noundef nonnull readonly align 8 dereferenceable(41) %0, i64 noundef %1, i64 noundef %2) local_unnamed_addr #0 align 2 {
  %4 = alloca %class.ZErrno, align 4
  %5 = load i32, ptr %0, align 8
  %6 = tail call noundef i32 @_ZN8ZSyscall9fallocateEiimm(i32 noundef %5, i32 noundef 0, i64 noundef %1, i64 noundef %2) #12
  %7 = icmp eq i32 %6, -1
  br i1 %7, label %8, label %11

8:                                                ; preds = %3
  %9 = tail call ptr @__errno_location() #13
  %10 = load i32, ptr %9, align 4
  br label %11

11:                                               ; preds = %3, %8
  %.sink = phi i32 [ %10, %8 ], [ 0, %3 ]
  call void @_ZN6ZErrnoC1Ei(ptr noundef nonnull align 4 dereferenceable(4) %4, i32 noundef %.sink) #12
  %12 = load i32, ptr %4, align 4
  ret i32 %12
}